target datalayout = "e-m:e-p270:32:32-p271:32:32-p272:64:64-i64:64-i128:128-f80:128-n8:16:32:64-S128"
target triple = "x86_64-unknown-linux-gnu"

%"class.tf::Graph" = type { %"class.std::vector.3" }
%"class.std::vector.3" = type { %"struct.std::_Vector_base.4" }
%"struct.std::_Vector_base.4" = type { %"struct.std::_Vector_base<tf::Node *, std::allocator<tf::Node *>>::_Vector_impl" }
%"struct.std::_Vector_base<tf::Node *, std::allocator<tf::Node *>>::_Vector_impl" = type { %"struct.std::_Vector_base<tf::Node *, std::allocator<tf::Node *>>::_Vector_impl_data" }
%"struct.std::_Vector_base<tf::Node *, std::allocator<tf::Node *>>::_Vector_impl_data" = type { ptr, ptr, ptr }
%"struct.std::__detail::_Hash_node_base" = type { ptr }
%"struct.std::__detail::_Prime_rehash_policy" = type { float, i64 }
%"class.tf::Pipeline" = type { %"class.tf::Graph", i64, %"class.std::tuple", %"struct.std::array", %"class.std::vector.76", %"class.std::vector.81", %"class.std::vector.86", %"class.std::queue.91", %"class.std::unordered_map.98", %"class.std::unordered_map.118", i64 }
%"class.std::tuple" = type { %"struct.std::_Tuple_impl" }
%"struct.std::_Tuple_impl" = type { %"struct.std::_Tuple_impl.64", %"struct.std::_Head_base.71" }
%"struct.std::_Tuple_impl.64" = type { %"struct.std::_Tuple_impl.65", %"struct.std::_Head_base.66" }
%"struct.std::_Tuple_impl.65" = type { %"struct.std::_Head_base" }
%"struct.std::_Head_base" = type { %"class.tf::Pipe" }
%"class.tf::Pipe" = type <{ i32, %class.anon, [3 x i8] }>
%class.anon = type { i8 }
%"struct.std::_Head_base.66" = type { %"class.tf::Pipe.67" }
%"class.tf::Pipe.67" = type <{ i32, %class.anon.68, [3 x i8] }>
%class.anon.68 = type { i8 }
%"struct.std::_Head_base.71" = type { %"class.tf::Pipe.72" }
%"class.tf::Pipe.72" = type <{ i32, %class.anon.73, [3 x i8] }>
%class.anon.73 = type { i8 }
%"struct.std::array" = type { [3 x %"struct.tf::Pipeline<tf::Pipe<(lambda at /home/dtcxzyw/WorkSpace/Projects/compilers/llvm-opt-benchmark/bench/taskflow/taskflow/examples/pipeline_with_deferred_tokens.cpp:46:36)>, tf::Pipe<(lambda at /home/dtcxzyw/WorkSpace/Projects/compilers/llvm-opt-benchmark/bench/taskflow/taskflow/examples/pipeline_with_deferred_tokens.cpp:91:36)>, tf::Pipe<(lambda at /home/dtcxzyw/WorkSpace/Projects/compilers/llvm-opt-benchmark/bench/taskflow/taskflow/examples/pipeline_with_deferred_tokens.cpp:95:36)>>::PipeMeta"] }
%"struct.tf::Pipeline<tf::Pipe<(lambda at /home/dtcxzyw/WorkSpace/Projects/compilers/llvm-opt-benchmark/bench/taskflow/taskflow/examples/pipeline_with_deferred_tokens.cpp:46:36)>, tf::Pipe<(lambda at /home/dtcxzyw/WorkSpace/Projects/compilers/llvm-opt-benchmark/bench/taskflow/taskflow/examples/pipeline_with_deferred_tokens.cpp:91:36)>, tf::Pipe<(lambda at /home/dtcxzyw/WorkSpace/Projects/compilers/llvm-opt-benchmark/bench/taskflow/taskflow/examples/pipeline_with_deferred_tokens.cpp:95:36)>>::PipeMeta" = type { i32 }
%"class.std::vector.76" = type { %"struct.std::_Vector_base.77" }
%"struct.std::_Vector_base.77" = type { %"struct.std::_Vector_base<std::array<tf::Pipeline<tf::Pipe<(lambda at /home/dtcxzyw/WorkSpace/Projects/compilers/llvm-opt-benchmark/bench/taskflow/taskflow/examples/pipeline_with_deferred_tokens.cpp:46:36)>, tf::Pipe<(lambda at /home/dtcxzyw/WorkSpace/Projects/compilers/llvm-opt-benchmark/bench/taskflow/taskflow/examples/pipeline_with_deferred_tokens.cpp:91:36)>, tf::Pipe<(lambda at /home/dtcxzyw/WorkSpace/Projects/compilers/llvm-opt-benchmark/bench/taskflow/taskflow/examples/pipeline_with_deferred_tokens.cpp:95:36)>>::Line, 3>, std::allocator<std::array<tf::Pipeline<tf::Pipe<(lambda at /home/dtcxzyw/WorkSpace/Projects/compilers/llvm-opt-benchmark/bench/taskflow/taskflow/examples/pipeline_with_deferred_tokens.cpp:46:36)>, tf::Pipe<(lambda at /home/dtcxzyw/WorkSpace/Projects/compilers/llvm-opt-benchmark/bench/taskflow/taskflow/examples/pipeline_with_deferred_tokens.cpp:91:36)>, tf::Pipe<(lambda at /home/dtcxzyw/WorkSpace/Projects/compilers/llvm-opt-benchmark/bench/taskflow/taskflow/examples/pipeline_with_deferred_tokens.cpp:95:36)>>::Line, 3>>>::_Vector_impl" }
%"struct.std::_Vector_base<std::array<tf::Pipeline<tf::Pipe<(lambda at /home/dtcxzyw/WorkSpace/Projects/compilers/llvm-opt-benchmark/bench/taskflow/taskflow/examples/pipeline_with_deferred_tokens.cpp:46:36)>, tf::Pipe<(lambda at /home/dtcxzyw/WorkSpace/Projects/compilers/llvm-opt-benchmark/bench/taskflow/taskflow/examples/pipeline_with_deferred_tokens.cpp:91:36)>, tf::Pipe<(lambda at /home/dtcxzyw/WorkSpace/Projects/compilers/llvm-opt-benchmark/bench/taskflow/taskflow/examples/pipeline_with_deferred_tokens.cpp:95:36)>>::Line, 3>, std::allocator<std::array<tf::Pipeline<tf::Pipe<(lambda at /home/dtcxzyw/WorkSpace/Projects/compilers/llvm-opt-benchmark/bench/taskflow/taskflow/examples/pipeline_with_deferred_tokens.cpp:46:36)>, tf::Pipe<(lambda at /home/dtcxzyw/WorkSpace/Projects/compilers/llvm-opt-benchmark/bench/taskflow/taskflow/examples/pipeline_with_deferred_tokens.cpp:91:36)>, tf::Pipe<(lambda at /home/dtcxzyw/WorkSpace/Projects/compilers/llvm-opt-benchmark/bench/taskflow/taskflow/examples/pipeline_with_deferred_tokens.cpp:95:36)>>::Line, 3>>>::_Vector_impl" = type { %"struct.std::_Vector_base<std::array<tf::Pipeline<tf::Pipe<(lambda at /home/dtcxzyw/WorkSpace/Projects/compilers/llvm-opt-benchmark/bench/taskflow/taskflow/examples/pipeline_with_deferred_tokens.cpp:46:36)>, tf::Pipe<(lambda at /home/dtcxzyw/WorkSpace/Projects/compilers/llvm-opt-benchmark/bench/taskflow/taskflow/examples/pipeline_with_deferred_tokens.cpp:91:36)>, tf::Pipe<(lambda at /home/dtcxzyw/WorkSpace/Projects/compilers/llvm-opt-benchmark/bench/taskflow/taskflow/examples/pipeline_with_deferred_tokens.cpp:95:36)>>::Line, 3>, std::allocator<std::array<tf::Pipeline<tf::Pipe<(lambda at /home/dtcxzyw/WorkSpace/Projects/compilers/llvm-opt-benchmark/bench/taskflow/taskflow/examples/pipeline_with_deferred_tokens.cpp:46:36)>, tf::Pipe<(lambda at /home/dtcxzyw/WorkSpace/Projects/compilers/llvm-opt-benchmark/bench/taskflow/taskflow/examples/pipeline_with_deferred_tokens.cpp:91:36)>, tf::Pipe<(lambda at /home/dtcxzyw/WorkSpace/Projects/compilers/llvm-opt-benchmark/bench/taskflow/taskflow/examples/pipeline_with_deferred_tokens.cpp:95:36)>>::Line, 3>>>::_Vector_impl_data" }
%"struct.std::_Vector_base<std::array<tf::Pipeline<tf::Pipe<(lambda at /home/dtcxzyw/WorkSpace/Projects/compilers/llvm-opt-benchmark/bench/taskflow/taskflow/examples/pipeline_with_deferred_tokens.cpp:46:36)>, tf::Pipe<(lambda at /home/dtcxzyw/WorkSpace/Projects/compilers/llvm-opt-benchmark/bench/taskflow/taskflow/examples/pipeline_with_deferred_tokens.cpp:91:36)>, tf::Pipe<(lambda at /home/dtcxzyw/WorkSpace/Projects/compilers/llvm-opt-benchmark/bench/taskflow/taskflow/examples/pipeline_with_deferred_tokens.cpp:95:36)>>::Line, 3>, std::allocator<std::array<tf::Pipeline<tf::Pipe<(lambda at /home/dtcxzyw/WorkSpace/Projects/compilers/llvm-opt-benchmark/bench/taskflow/taskflow/examples/pipeline_with_deferred_tokens.cpp:46:36)>, tf::Pipe<(lambda at /home/dtcxzyw/WorkSpace/Projects/compilers/llvm-opt-benchmark/bench/taskflow/taskflow/examples/pipeline_with_deferred_tokens.cpp:91:36)>, tf::Pipe<(lambda at /home/dtcxzyw/WorkSpace/Projects/compilers/llvm-opt-benchmark/bench/taskflow/taskflow/examples/pipeline_with_deferred_tokens.cpp:95:36)>>::Line, 3>>>::_Vector_impl_data" = type { ptr, ptr, ptr }
%"class.std::vector.81" = type { %"struct.std::_Vector_base.82" }
%"struct.std::_Vector_base.82" = type { %"struct.std::_Vector_base<tf::Task, std::allocator<tf::Task>>::_Vector_impl" }
%"struct.std::_Vector_base<tf::Task, std::allocator<tf::Task>>::_Vector_impl" = type { %"struct.std::_Vector_base<tf::Task, std::allocator<tf::Task>>::_Vector_impl_data" }
%"struct.std::_Vector_base<tf::Task, std::allocator<tf::Task>>::_Vector_impl_data" = type { ptr, ptr, ptr }
%"class.std::vector.86" = type { %"struct.std::_Vector_base.87" }
%"struct.std::_Vector_base.87" = type { %"struct.std::_Vector_base<tf::Pipeflow, std::allocator<tf::Pipeflow>>::_Vector_impl" }
%"struct.std::_Vector_base<tf::Pipeflow, std::allocator<tf::Pipeflow>>::_Vector_impl" = type { %"struct.std::_Vector_base<tf::Pipeflow, std::allocator<tf::Pipeflow>>::_Vector_impl_data" }
%"struct.std::_Vector_base<tf::Pipeflow, std::allocator<tf::Pipeflow>>::_Vector_impl_data" = type { ptr, ptr, ptr }
%"class.std::queue.91" = type { %"class.std::deque.92" }
%"class.std::deque.92" = type { %"class.std::_Deque_base.93" }
%"class.std::_Deque_base.93" = type { %"struct.std::_Deque_base<std::pair<unsigned long, unsigned long>, std::allocator<std::pair<unsigned long, unsigned long>>>::_Deque_impl" }
%"struct.std::_Deque_base<std::pair<unsigned long, unsigned long>, std::allocator<std::pair<unsigned long, unsigned long>>>::_Deque_impl" = type { %"struct.std::_Deque_base<std::pair<unsigned long, unsigned long>, std::allocator<std::pair<unsigned long, unsigned long>>>::_Deque_impl_data" }
%"struct.std::_Deque_base<std::pair<unsigned long, unsigned long>, std::allocator<std::pair<unsigned long, unsigned long>>>::_Deque_impl_data" = type { ptr, i64, %"struct.std::_Deque_iterator.97", %"struct.std::_Deque_iterator.97" }
%"struct.std::_Deque_iterator.97" = type { ptr, ptr, ptr, ptr }
%"class.std::unordered_map.98" = type { %"class.std::_Hashtable.99" }
%"class.std::_Hashtable.99" = type { ptr, i64, %"struct.std::__detail::_Hash_node_base", i64, %"struct.std::__detail::_Prime_rehash_policy", ptr }
%"class.std::unordered_map.118" = type { %"class.std::_Hashtable.119" }
%"class.std::_Hashtable.119" = type { ptr, i64, %"struct.std::__detail::_Hash_node_base", i64, %"struct.std::__detail::_Prime_rehash_policy", ptr }
%class.anon.566 = type { ptr }

; Function Attrs: mustprogress nounwind uwtable
define linkonce_odr dso_local noundef i64 @_ZNKSt6vectorIN2tf8PipeflowESaIS1_EE4sizeEv(ptr noundef nonnull align 8 dereferenceable(24) %this) #5 comdat align 2 {
entry:
  %this.addr = alloca ptr, align 8
  store ptr %this, ptr %this.addr, align 8
  %this1 = load ptr, ptr %this.addr, align 8
  %_M_impl = getelementptr inbounds %"struct.std::_Vector_base.87", ptr %this1, i32 0, i32 0
  %_M_finish = getelementptr inbounds %"struct.std::_Vector_base<tf::Pipeflow, std::allocator<tf::Pipeflow>>::_Vector_impl_data", ptr %_M_impl, i32 0, i32 1
  %0 = load ptr, ptr %_M_finish, align 8
  %_M_impl2 = getelementptr inbounds %"struct.std::_Vector_base.87", ptr %this1, i32 0, i32 0
  %_M_start = getelementptr inbounds %"struct.std::_Vector_base<tf::Pipeflow, std::allocator<tf::Pipeflow>>::_Vector_impl_data", ptr %_M_impl2, i32 0, i32 0
  %1 = load ptr, ptr %_M_start, align 8
  %sub.ptr.lhs.cast = ptrtoint ptr %0 to i64
  %sub.ptr.rhs.cast = ptrtoint ptr %1 to i64
  %sub.ptr.sub = sub i64 %sub.ptr.lhs.cast, %sub.ptr.rhs.cast
  %sub.ptr.div = sdiv exact i64 %sub.ptr.sub, 96
  ret i64 %sub.ptr.div
}

; Function Attrs: mustprogress nounwind uwtable
define internal noundef i64 @"_ZNK2tf8PipelineIJNS_4PipeIZ4mainE3$_0EENS1_IZ4mainE3$_1EENS1_IZ4mainE3$_2EEEE9num_linesEv"(ptr noundef nonnull align 8 dereferenceable(344) %this) #5 align 2 {
entry:
  %this.addr = alloca ptr, align 8
  store ptr %this, ptr %this.addr, align 8
  %this1 = load ptr, ptr %this.addr, align 8
  %_pipeflows = getelementptr inbounds %"class.tf::Pipeline", ptr %this1, i32 0, i32 6
  %call = call noundef i64 @_ZNKSt6vectorIN2tf8PipeflowESaIS1_EE4sizeEv(ptr noundef nonnull align 8 dereferenceable(24) %_pipeflows) #3
  ret i64 %call
}

; Function Attrs: mustprogress nounwind uwtable
define internal noundef i32 @"_ZZN2tf8PipelineIJNS_4PipeIZ4mainE3$_0EENS1_IZ4mainE3$_1EENS1_IZ4mainE3$_2EEEE6_buildEvENKUlvE_clEv"(ptr noundef nonnull align 8 dereferenceable(8) %this) #5 align 2 {
entry:
  %this.addr = alloca ptr, align 8
  store ptr %this, ptr %this.addr, align 8
  %this1 = load ptr, ptr %this.addr, align 8
  %0 = getelementptr inbounds %class.anon.566, ptr %this1, i32 0, i32 0
  %1 = load ptr, ptr %0, align 8
  %_num_tokens = getelementptr inbounds %"class.tf::Pipeline", ptr %1, i32 0, i32 1
  %2 = load i64, ptr %_num_tokens, align 8
  %call = call noundef i64 @"_ZNK2tf8PipelineIJNS_4PipeIZ4mainE3$_0EENS1_IZ4mainE3$_1EENS1_IZ4mainE3$_2EEEE9num_linesEv"(ptr noundef nonnull align 8 dereferenceable(344) %1) #3
  %rem = urem i64 %2, %call
  %conv = trunc i64 %rem to i32
  ret i32 %conv
}

; Function Attrs: mustprogress nounwind uwtable
define linkonce_odr dso_local noundef ptr @_ZNKSt9_Any_data9_M_accessEv(ptr noundef nonnull align 8 dereferenceable(16) %this) #5 comdat align 2 {
entry:
  %this.addr = alloca ptr, align 8
  store ptr %this, ptr %this.addr, align 8
  %this1 = load ptr, ptr %this.addr, align 8
  %arrayidx = getelementptr inbounds [16 x i8], ptr %this1, i64 0, i64 0
  ret ptr %arrayidx
}

; Function Attrs: mustprogress uwtable
define internal noundef i32 @"_ZSt13__invoke_implIiRZN2tf8PipelineIJNS0_4PipeIZ4mainE3$_0EENS2_IZ4mainE3$_1EENS2_IZ4mainE3$_2EEEE6_buildEvEUlvE_JEET_St14__invoke_otherOT0_DpOT1_"(ptr noundef nonnull align 8 dereferenceable(8) %__f) #4 {
entry:
  %__f.addr = alloca ptr, align 8
  store ptr %__f, ptr %__f.addr, align 8
  %0 = load ptr, ptr %__f.addr, align 8
  %call = call noundef i32 @"_ZZN2tf8PipelineIJNS_4PipeIZ4mainE3$_0EENS1_IZ4mainE3$_1EENS1_IZ4mainE3$_2EEEE6_buildEvENKUlvE_clEv"(ptr noundef nonnull align 8 dereferenceable(8) %0)
  ret i32 %call
}

; Function Attrs: mustprogress nounwind uwtable
define internal noundef nonnull align 8 dereferenceable(8) ptr @"_ZNKSt9_Any_data9_M_accessIZN2tf8PipelineIJNS1_4PipeIZ4mainE3$_0EENS3_IZ4mainE3$_1EENS3_IZ4mainE3$_2EEEE6_buildEvEUlvE_EERKT_v"(ptr noundef nonnull align 8 dereferenceable(16) %this) #5 align 2 {
entry:
  %this.addr = alloca ptr, align 8
  store ptr %this, ptr %this.addr, align 8
  %this1 = load ptr, ptr %this.addr, align 8
  %call = call noundef ptr @_ZNKSt9_Any_data9_M_accessEv(ptr noundef nonnull align 8 dereferenceable(16) %this1) #3
  ret ptr %call
}

; Function Attrs: mustprogress uwtable
define internal noundef i32 @"_ZSt10__invoke_rIiRZN2tf8PipelineIJNS0_4PipeIZ4mainE3$_0EENS2_IZ4mainE3$_1EENS2_IZ4mainE3$_2EEEE6_buildEvEUlvE_JEENSt9enable_ifIX16is_invocable_r_vIT_T0_DpT1_EESD_E4typeEOSE_DpOSF_"(ptr noundef nonnull align 8 dereferenceable(8) %__fn) #4 {
entry:
  %__fn.addr = alloca ptr, align 8
  store ptr %__fn, ptr %__fn.addr, align 8
  %0 = load ptr, ptr %__fn.addr, align 8
  %call = call noundef i32 @"_ZSt13__invoke_implIiRZN2tf8PipelineIJNS0_4PipeIZ4mainE3$_0EENS2_IZ4mainE3$_1EENS2_IZ4mainE3$_2EEEE6_buildEvEUlvE_JEET_St14__invoke_otherOT0_DpOT1_"(ptr noundef nonnull align 8 dereferenceable(8) %0)
  ret i32 %call
}

; Function Attrs: mustprogress nounwind uwtable
define internal noundef ptr @"_ZNSt14_Function_base13_Base_managerIZN2tf8PipelineIJNS1_4PipeIZ4mainE3$_0EENS3_IZ4mainE3$_1EENS3_IZ4mainE3$_2EEEE6_buildEvEUlvE_E14_M_get_pointerERKSt9_Any_data"(ptr noundef nonnull align 8 dereferenceable(16) %__source) #5 align 2 {
entry:
  %__source.addr = alloca ptr, align 8
  %__f = alloca ptr, align 8
  store ptr %__source, ptr %__source.addr, align 8
  %0 = load ptr, ptr %__source.addr, align 8
  %call = call noundef nonnull align 8 dereferenceable(8) ptr @"_ZNKSt9_Any_data9_M_accessIZN2tf8PipelineIJNS1_4PipeIZ4mainE3$_0EENS3_IZ4mainE3$_1EENS3_IZ4mainE3$_2EEEE6_buildEvEUlvE_EERKT_v"(ptr noundef nonnull align 8 dereferenceable(16) %0) #3
  store ptr %call, ptr %__f, align 8
  %1 = load ptr, ptr %__f, align 8
  ret ptr %1
}

; Function Attrs: mustprogress uwtable
define internal noundef i32 @"_ZNSt17_Function_handlerIFivEZN2tf8PipelineIJNS1_4PipeIZ4mainE3$_0EENS3_IZ4mainE3$_1EENS3_IZ4mainE3$_2EEEE6_buildEvEUlvE_E9_M_invokeERKSt9_Any_data"(ptr noundef nonnull align 8 dereferenceable(16) %__functor) #4 align 2 {
entry:
  %__functor.addr = alloca ptr, align 8
  store ptr %__functor, ptr %__functor.addr, align 8
  %0 = load ptr, ptr %__functor.addr, align 8
  %call = call noundef ptr @"_ZNSt14_Function_base13_Base_managerIZN2tf8PipelineIJNS1_4PipeIZ4mainE3$_0EENS3_IZ4mainE3$_1EENS3_IZ4mainE3$_2EEEE6_buildEvEUlvE_E14_M_get_pointerERKSt9_Any_data"(ptr noundef nonnull align 8 dereferenceable(16) %0) #3
  %call1 = call noundef i32 @"_ZSt10__invoke_rIiRZN2tf8PipelineIJNS0_4PipeIZ4mainE3$_0EENS2_IZ4mainE3$_1EENS2_IZ4mainE3$_2EEEE6_buildEvEUlvE_JEENSt9enable_ifIX16is_invocable_r_vIT_T0_DpT1_EESD_E4typeEOSE_DpOSF_"(ptr noundef nonnull align 8 dereferenceable(8) %call)
  ret i32 %call1
}