; Function Attrs: mustprogress nofree norecurse nosync nounwind willreturn memory(read, inaccessiblemem: none) uwtable
define internal noundef i32 @"_ZNSt17_Function_handlerIFivEZN2tf8PipelineIJNS1_4PipeIZ4mainE3$_0EENS3_IZ4mainE3$_1EENS3_IZ4mainE3$_2EEEE6_buildEvEUlvE_E9_M_invokeERKSt9_Any_data"(ptr nocapture noundef nonnull readonly align 8 dereferenceable(16) %__functor) #24 align 2 {
entry:
  %call.val = load ptr, ptr %__functor, align 8
  %_num_tokens.i.i.i = getelementptr inbounds i8, ptr %call.val, i64 24
  %0 = load i64, ptr %_num_tokens.i.i.i, align 8
  %1 = getelementptr i8, ptr %call.val, i64 120
  %.val.i.i.i = load ptr, ptr %1, align 8
  %2 = getelementptr i8, ptr %call.val, i64 128
  %.val1.i.i.i = load ptr, ptr %2, align 8
  %sub.ptr.lhs.cast.i.i.i.i.i = ptrtoint ptr %.val1.i.i.i to i64
  %sub.ptr.rhs.cast.i.i.i.i.i = ptrtoint ptr %.val.i.i.i to i64
  %sub.ptr.sub.i.i.i.i.i = sub i64 %sub.ptr.lhs.cast.i.i.i.i.i, %sub.ptr.rhs.cast.i.i.i.i.i
  %sub.ptr.div.i.i.i.i.i = sdiv exact i64 %sub.ptr.sub.i.i.i.i.i, 96
  %rem.i.i.i = urem i64 %0, %sub.ptr.div.i.i.i.i.i
  %conv.i.i.i = trunc i64 %rem.i.i.i to i32
  ret i32 %conv.i.i.i
}